; Function Attrs: mustprogress nofree norecurse nosync nounwind willreturn memory(none) uwtable
define internal fastcc noundef zeroext i1 @_ZL17mayTailCallThisCCj(i32 noundef %0) unnamed_addr #7 {
  switch i32 %0, label %2 [
    i32 0, label %_ZL15canGuaranteeTCOj.exit
    i32 79, label %_ZL15canGuaranteeTCOj.exit
    i32 78, label %_ZL15canGuaranteeTCOj.exit
    i32 21, label %_ZL15canGuaranteeTCOj.exit
    i32 70, label %_ZL15canGuaranteeTCOj.exit
    i32 64, label %_ZL15canGuaranteeTCOj.exit
    i32 80, label %_ZL15canGuaranteeTCOj.exit
    i32 65, label %_ZL15canGuaranteeTCOj.exit
    i32 16, label %_ZL15canGuaranteeTCOj.exit
    i32 92, label %_ZL15canGuaranteeTCOj.exit
    i32 18, label %_ZL15canGuaranteeTCOj.exit
    i32 11, label %_ZL15canGuaranteeTCOj.exit
    i32 10, label %_ZL15canGuaranteeTCOj.exit
    i32 8, label %_ZL15canGuaranteeTCOj.exit
    i32 20, label %_ZL15canGuaranteeTCOj.exit
  ]

2:                                                ; preds = %1
  br label %_ZL15canGuaranteeTCOj.exit

_ZL15canGuaranteeTCOj.exit:                       ; preds = %1, %1, %1, %1, %1, %1, %1, %1, %1, %1, %1, %1, %1, %1, %1, %2
  %.0 = phi i1 [ true, %1 ], [ true, %1 ], [ true, %1 ], [ true, %1 ], [ true, %1 ], [ true, %1 ], [ true, %1 ], [ true, %1 ], [ true, %1 ], [ false, %2 ], [ true, %1 ], [ true, %1 ], [ true, %1 ], [ true, %1 ], [ true, %1 ], [ true, %1 ]
  ret i1 %.0
}